; Function Attrs: noreturn nounwind uwtable
define noalias noundef nonnull ptr @Cec_GiaSplitWorkerThread(ptr noundef %0) #7 {
  %2 = getelementptr inbounds nuw i8, ptr %0, i64 24
  %3 = getelementptr inbounds nuw i8, ptr %0, i64 8
  %4 = getelementptr inbounds nuw i8, ptr %0, i64 20
  %5 = getelementptr inbounds nuw i8, ptr %0, i64 32
  %6 = getelementptr inbounds nuw i8, ptr %0, i64 36
  %7 = getelementptr inbounds nuw i8, ptr %0, i64 28
  br label %8

8:                                                ; preds = %.backedge, %1
  %9 = load volatile i32, ptr %2, align 4, !tbaa !30
  %10 = icmp eq i32 %9, 0
  br i1 %10, label %.backedge, label %11

.backedge:                                        ; preds = %8, %15
  br label %8, !llvm.loop !87

11:                                               ; preds = %8
  %12 = load ptr, ptr %0, align 8, !tbaa !88
  %13 = icmp eq ptr %12, null
  br i1 %13, label %14, label %15

14:                                               ; preds = %11
  tail call void @pthread_exit(ptr noundef null) #22
  unreachable

15:                                               ; preds = %11
  %16 = load ptr, ptr %3, align 8, !tbaa !91
  %17 = load i32, ptr %4, align 4, !tbaa !92
  %18 = tail call fastcc i32 @Cnf_GiaSolveOne(ptr noundef nonnull %12, ptr noundef %16, i32 noundef %17, ptr noundef nonnull %5, ptr noundef nonnull %6)
  store i32 %18, ptr %7, align 4, !tbaa !93
  store i32 0, ptr %2, align 8, !tbaa !94
  br label %.backedge
}